; Function Attrs: mustprogress nounwind uwtable
define dso_local noundef nonnull align 8 dereferenceable(48) ptr @_ZN4llvm10sampleproflsERNS_11raw_ostreamERKNS0_12LineLocationE(ptr noundef nonnull returned align 8 dereferenceable(48) %0, ptr noundef nonnull readonly align 4 captures(none) dereferenceable(8) %1) local_unnamed_addr #0 {
  %3 = load i32, ptr %1, align 4
  %4 = zext i32 %3 to i64
  %5 = tail call noundef nonnull align 8 dereferenceable(48) ptr @_ZN4llvm11raw_ostreamlsEm(ptr noundef nonnull align 8 dereferenceable(48) %0, i64 noundef %4) #22
  %6 = getelementptr inbounds nuw i8, ptr %1, i64 4
  %7 = load i32, ptr %6, align 4
  %.not.i = icmp eq i32 %7, 0
  br i1 %.not.i, label %_ZNK4llvm10sampleprof12LineLocation5printERNS_11raw_ostreamE.exit, label %8

8:                                                ; preds = %2
  %9 = getelementptr inbounds nuw i8, ptr %0, i64 24
  %10 = load ptr, ptr %9, align 8
  %11 = getelementptr inbounds nuw i8, ptr %0, i64 32
  %12 = load ptr, ptr %11, align 8
  %13 = icmp eq ptr %10, %12
  br i1 %13, label %14, label %16

14:                                               ; preds = %8
  %15 = tail call noundef nonnull align 8 dereferenceable(48) ptr @_ZN4llvm11raw_ostream5writeEPKcm(ptr noundef nonnull align 8 dereferenceable(48) %0, ptr noundef nonnull @.str.5, i64 noundef 1) #22
  br label %_ZN4llvm11raw_ostreamlsEPKc.exit.i

16:                                               ; preds = %8
  store i8 46, ptr %12, align 1
  %17 = load ptr, ptr %11, align 8
  %18 = getelementptr inbounds nuw i8, ptr %17, i64 1
  store ptr %18, ptr %11, align 8
  br label %_ZN4llvm11raw_ostreamlsEPKc.exit.i

_ZN4llvm11raw_ostreamlsEPKc.exit.i:               ; preds = %16, %14
  %.0.i.i.i = phi ptr [ %15, %14 ], [ %0, %16 ]
  %19 = load i32, ptr %6, align 4
  %20 = zext i32 %19 to i64
  %21 = tail call noundef nonnull align 8 dereferenceable(48) ptr @_ZN4llvm11raw_ostreamlsEm(ptr noundef nonnull align 8 dereferenceable(48) %.0.i.i.i, i64 noundef %20) #22
  br label %_ZNK4llvm10sampleprof12LineLocation5printERNS_11raw_ostreamE.exit

_ZNK4llvm10sampleprof12LineLocation5printERNS_11raw_ostreamE.exit: ; preds = %2, %_ZN4llvm11raw_ostreamlsEPKc.exit.i
  ret ptr %0
}